target datalayout = "e-m:e-p270:32:32-p271:32:32-p272:64:64-i64:64-i128:128-f80:128-n8:16:32:64-S128"
target triple = "x86_64-pc-linux-gnu"

%"class.rocksdb::Slice" = type { ptr, i64 }
%"struct.std::_Deque_iterator.23" = type { ptr, ptr, ptr, ptr }
%"class.std::__cxx11::basic_string" = type { %"struct.std::__cxx11::basic_string<char>::_Alloc_hider", i64, %union.anon }
%"struct.std::__cxx11::basic_string<char>::_Alloc_hider" = type { ptr }
%union.anon = type { i64, [8 x i8] }
%"class.std::_Deque_base.4" = type { %"struct.std::_Deque_base<rocksdb::Slice, std::allocator<rocksdb::Slice>>::_Deque_impl" }
%"struct.std::_Deque_base<rocksdb::Slice, std::allocator<rocksdb::Slice>>::_Deque_impl" = type { %"struct.std::_Deque_base<rocksdb::Slice, std::allocator<rocksdb::Slice>>::_Deque_impl_data" }
%"struct.std::_Deque_base<rocksdb::Slice, std::allocator<rocksdb::Slice>>::_Deque_impl_data" = type { ptr, i64, %"struct.std::_Deque_iterator.8", %"struct.std::_Deque_iterator.8" }
%"struct.std::_Deque_iterator.8" = type { ptr, ptr, ptr, ptr }

; Function Attrs: inlinehint mustprogress nounwind uwtable
define linkonce_odr noundef i64 @_ZSt16__deque_buf_sizem(i64 noundef %0) #5 comdat {
  %2 = alloca i64, align 8
  store i64 %0, ptr %2, align 8, !tbaa !19
  %3 = load i64, ptr %2, align 8, !tbaa !19
  %4 = icmp ult i64 %3, 512
  br i1 %4, label %5, label %8

5:                                                ; preds = %1
  %6 = load i64, ptr %2, align 8, !tbaa !19
  %7 = udiv i64 512, %6
  br label %9

8:                                                ; preds = %1
  br label %9

9:                                                ; preds = %8, %5
  %10 = phi i64 [ %7, %5 ], [ 1, %8 ]
  ret i64 %10
}

; Function Attrs: mustprogress nounwind uwtable
define linkonce_odr noundef i64 @_ZNSt15_Deque_iteratorIN7rocksdb5SliceERKS1_PS2_E14_S_buffer_sizeEv() #1 comdat align 2 {
  %1 = call noundef i64 @_ZSt16__deque_buf_sizem(i64 noundef 16)
  ret i64 %1
}

; Function Attrs: mustprogress nounwind uwtable
define linkonce_odr void @_ZNSt15_Deque_iteratorIN7rocksdb5SliceERKS1_PS2_E11_M_set_nodeEPPS1_(ptr noundef nonnull align 8 dereferenceable(32) %0, ptr noundef %1) #1 comdat align 2 {
  %3 = alloca ptr, align 8
  %4 = alloca ptr, align 8
  store ptr %0, ptr %3, align 8, !tbaa !131
  store ptr %1, ptr %4, align 8, !tbaa !146
  %5 = load ptr, ptr %3, align 8
  %6 = load ptr, ptr %4, align 8, !tbaa !146
  %7 = getelementptr inbounds nuw %"struct.std::_Deque_iterator.23", ptr %5, i32 0, i32 3
  store ptr %6, ptr %7, align 8, !tbaa !137
  %8 = load ptr, ptr %4, align 8, !tbaa !146
  %9 = load ptr, ptr %8, align 8, !tbaa !9
  %10 = getelementptr inbounds nuw %"struct.std::_Deque_iterator.23", ptr %5, i32 0, i32 1
  store ptr %9, ptr %10, align 8, !tbaa !136
  %11 = getelementptr inbounds nuw %"struct.std::_Deque_iterator.23", ptr %5, i32 0, i32 1
  %12 = load ptr, ptr %11, align 8, !tbaa !136
  %13 = call noundef i64 @_ZNSt15_Deque_iteratorIN7rocksdb5SliceERKS1_PS2_E14_S_buffer_sizeEv() #18
  %14 = getelementptr inbounds %"class.rocksdb::Slice", ptr %12, i64 %13
  %15 = getelementptr inbounds nuw %"struct.std::_Deque_iterator.23", ptr %5, i32 0, i32 2
  store ptr %14, ptr %15, align 8, !tbaa !138
  ret void
}

; Function Attrs: mustprogress nounwind uwtable
define linkonce_odr void @_ZNSt15_Deque_iteratorIN7rocksdb5SliceERKS1_PS2_EC2IS_IS1_RS1_PS1_EvEERKT_(ptr noundef nonnull align 8 dereferenceable(32) %0, ptr noundef nonnull align 8 dereferenceable(32) %1) unnamed_addr #1 comdat align 2 {
  %3 = alloca ptr, align 8
  %4 = alloca ptr, align 8
  store ptr %0, ptr %3, align 8, !tbaa !131
  store ptr %1, ptr %4, align 8, !tbaa !139
  %5 = load ptr, ptr %3, align 8
  %6 = getelementptr inbounds nuw %"struct.std::_Deque_iterator.23", ptr %5, i32 0, i32 0
  %7 = load ptr, ptr %4, align 8, !tbaa !139
  %8 = getelementptr inbounds nuw %"struct.std::_Deque_iterator.8", ptr %7, i32 0, i32 0
  %9 = load ptr, ptr %8, align 8, !tbaa !141
  store ptr %9, ptr %6, align 8, !tbaa !133
  %10 = getelementptr inbounds nuw %"struct.std::_Deque_iterator.23", ptr %5, i32 0, i32 1
  %11 = load ptr, ptr %4, align 8, !tbaa !139
  %12 = getelementptr inbounds nuw %"struct.std::_Deque_iterator.8", ptr %11, i32 0, i32 1
  %13 = load ptr, ptr %12, align 8, !tbaa !143
  store ptr %13, ptr %10, align 8, !tbaa !136
  %14 = getelementptr inbounds nuw %"struct.std::_Deque_iterator.23", ptr %5, i32 0, i32 2
  %15 = load ptr, ptr %4, align 8, !tbaa !139
  %16 = getelementptr inbounds nuw %"struct.std::_Deque_iterator.8", ptr %15, i32 0, i32 2
  %17 = load ptr, ptr %16, align 8, !tbaa !144
  store ptr %17, ptr %14, align 8, !tbaa !138
  %18 = getelementptr inbounds nuw %"struct.std::_Deque_iterator.23", ptr %5, i32 0, i32 3
  %19 = load ptr, ptr %4, align 8, !tbaa !139
  %20 = getelementptr inbounds nuw %"struct.std::_Deque_iterator.8", ptr %19, i32 0, i32 3
  %21 = load ptr, ptr %20, align 8, !tbaa !145
  store ptr %21, ptr %18, align 8, !tbaa !137
  ret void
}

; Function Attrs: mustprogress nounwind uwtable
define available_externally noundef i64 @_ZNKSt7__cxx1112basic_stringIcSt11char_traitsIcESaIcEE4sizeEv(ptr noundef nonnull align 8 dereferenceable(32) %0) #1 align 2 {
  %2 = alloca ptr, align 8
  store ptr %0, ptr %2, align 8, !tbaa !13
  %3 = load ptr, ptr %2, align 8
  %4 = getelementptr inbounds nuw %"class.std::__cxx11::basic_string", ptr %3, i32 0, i32 1
  %5 = load i64, ptr %4, align 8, !tbaa !95
  ret i64 %5
}

; Function Attrs: mustprogress nounwind uwtable
define linkonce_odr noundef nonnull align 8 dereferenceable(16) ptr @_ZNKSt15_Deque_iteratorIN7rocksdb5SliceERKS1_PS2_EdeEv(ptr noundef nonnull align 8 dereferenceable(32) %0) #1 comdat align 2 {
  %2 = alloca ptr, align 8
  store ptr %0, ptr %2, align 8, !tbaa !131
  %3 = load ptr, ptr %2, align 8
  %4 = getelementptr inbounds nuw %"struct.std::_Deque_iterator.23", ptr %3, i32 0, i32 0
  %5 = load ptr, ptr %4, align 8, !tbaa !133
  ret ptr %5
}

; Function Attrs: mustprogress nounwind uwtable
define linkonce_odr noundef nonnull align 8 dereferenceable(32) ptr @_ZNSt15_Deque_iteratorIN7rocksdb5SliceERKS1_PS2_EmmEv(ptr noundef nonnull align 8 dereferenceable(32) %0) #1 comdat align 2 {
  %2 = alloca ptr, align 8
  store ptr %0, ptr %2, align 8, !tbaa !131
  %3 = load ptr, ptr %2, align 8
  %4 = getelementptr inbounds nuw %"struct.std::_Deque_iterator.23", ptr %3, i32 0, i32 0
  %5 = load ptr, ptr %4, align 8, !tbaa !133
  %6 = getelementptr inbounds nuw %"struct.std::_Deque_iterator.23", ptr %3, i32 0, i32 1
  %7 = load ptr, ptr %6, align 8, !tbaa !136
  %8 = icmp eq ptr %5, %7
  br i1 %8, label %9, label %16

9:                                                ; preds = %1
  %10 = getelementptr inbounds nuw %"struct.std::_Deque_iterator.23", ptr %3, i32 0, i32 3
  %11 = load ptr, ptr %10, align 8, !tbaa !137
  %12 = getelementptr inbounds ptr, ptr %11, i64 -1
  call void @_ZNSt15_Deque_iteratorIN7rocksdb5SliceERKS1_PS2_E11_M_set_nodeEPPS1_(ptr noundef nonnull align 8 dereferenceable(32) %3, ptr noundef %12) #18
  %13 = getelementptr inbounds nuw %"struct.std::_Deque_iterator.23", ptr %3, i32 0, i32 2
  %14 = load ptr, ptr %13, align 8, !tbaa !138
  %15 = getelementptr inbounds nuw %"struct.std::_Deque_iterator.23", ptr %3, i32 0, i32 0
  store ptr %14, ptr %15, align 8, !tbaa !133
  br label %16

16:                                               ; preds = %9, %1
  %17 = getelementptr inbounds nuw %"struct.std::_Deque_iterator.23", ptr %3, i32 0, i32 0
  %18 = load ptr, ptr %17, align 8, !tbaa !133
  %19 = getelementptr inbounds %"class.rocksdb::Slice", ptr %18, i32 -1
  store ptr %19, ptr %17, align 8, !tbaa !133
  ret ptr %3
}

; Function Attrs: mustprogress nounwind uwtable
define linkonce_odr void @_ZNKSt5dequeIN7rocksdb5SliceESaIS1_EE3endEv(ptr dead_on_unwind noalias writable sret(%"struct.std::_Deque_iterator.23") align 8 %0, ptr noundef nonnull align 8 dereferenceable(80) %1) #1 comdat align 2 {
  %3 = alloca ptr, align 8
  %4 = alloca ptr, align 8
  store ptr %0, ptr %3, align 8
  store ptr %1, ptr %4, align 8, !tbaa !24
  %5 = load ptr, ptr %4, align 8
  %6 = getelementptr inbounds nuw %"class.std::_Deque_base.4", ptr %5, i32 0, i32 0
  %7 = getelementptr inbounds nuw %"struct.std::_Deque_base<rocksdb::Slice, std::allocator<rocksdb::Slice>>::_Deque_impl_data", ptr %6, i32 0, i32 3
  call void @_ZNSt15_Deque_iteratorIN7rocksdb5SliceERKS1_PS2_EC2IS_IS1_RS1_PS1_EvEERKT_(ptr noundef nonnull align 8 dereferenceable(32) %0, ptr noundef nonnull align 8 dereferenceable(32) %7) #18
  ret void
}

; Function Attrs: mustprogress uwtable
define available_externally noundef nonnull align 8 dereferenceable(32) ptr @_ZNSt7__cxx1112basic_stringIcSt11char_traitsIcESaIcEE6assignEPKcm(ptr noundef nonnull align 8 dereferenceable(32) %0, ptr noundef %1, i64 noundef %2) #0 align 2 {
  %4 = alloca ptr, align 8
  %5 = alloca ptr, align 8
  %6 = alloca i64, align 8
  store ptr %0, ptr %4, align 8, !tbaa !13
  store ptr %1, ptr %5, align 8, !tbaa !17
  store i64 %2, ptr %6, align 8, !tbaa !19
  %7 = load ptr, ptr %4, align 8
  %8 = call noundef i64 @_ZNKSt7__cxx1112basic_stringIcSt11char_traitsIcESaIcEE4sizeEv(ptr noundef nonnull align 8 dereferenceable(32) %7) #18
  %9 = load ptr, ptr %5, align 8, !tbaa !17
  %10 = load i64, ptr %6, align 8, !tbaa !19
  %11 = call noundef nonnull align 8 dereferenceable(32) ptr @_ZNSt7__cxx1112basic_stringIcSt11char_traitsIcESaIcEE10_M_replaceEmmPKcm(ptr noundef nonnull align 8 dereferenceable(32) %7, i64 noundef 0, i64 noundef %8, ptr noundef %9, i64 noundef %10)
  ret ptr %11
}

; Function Attrs: mustprogress nounwind uwtable
define linkonce_odr noundef i64 @_ZNK7rocksdb5Slice4sizeEv(ptr noundef nonnull align 8 dereferenceable(16) %0) #1 comdat align 2 {
  %2 = alloca ptr, align 8
  store ptr %0, ptr %2, align 8, !tbaa !9
  %3 = load ptr, ptr %2, align 8
  %4 = getelementptr inbounds nuw %"class.rocksdb::Slice", ptr %3, i32 0, i32 1
  %5 = load i64, ptr %4, align 8, !tbaa !23
  ret i64 %5
}

; Function Attrs: mustprogress nounwind uwtable
define linkonce_odr noundef ptr @_ZNK7rocksdb5Slice4dataEv(ptr noundef nonnull align 8 dereferenceable(16) %0) #1 comdat align 2 {
  %2 = alloca ptr, align 8
  store ptr %0, ptr %2, align 8, !tbaa !9
  %3 = load ptr, ptr %2, align 8
  %4 = getelementptr inbounds nuw %"class.rocksdb::Slice", ptr %3, i32 0, i32 0
  %5 = load ptr, ptr %4, align 8, !tbaa !21
  ret ptr %5
}

; Function Attrs: mustprogress nounwind uwtable
define linkonce_odr noundef nonnull align 8 dereferenceable(16) ptr @_ZNKSt5dequeIN7rocksdb5SliceESaIS1_EE4backEv(ptr noundef nonnull align 8 dereferenceable(80) %0) #1 comdat align 2 {
  %2 = alloca ptr, align 8
  %3 = alloca %"struct.std::_Deque_iterator.23", align 8
  store ptr %0, ptr %2, align 8, !tbaa !24
  %4 = load ptr, ptr %2, align 8
  call void @llvm.lifetime.start.p0(i64 32, ptr %3) #18
  call void @_ZNKSt5dequeIN7rocksdb5SliceESaIS1_EE3endEv(ptr dead_on_unwind writable sret(%"struct.std::_Deque_iterator.23") align 8 %3, ptr noundef nonnull align 8 dereferenceable(80) %4) #18
  %5 = call noundef nonnull align 8 dereferenceable(32) ptr @_ZNSt15_Deque_iteratorIN7rocksdb5SliceERKS1_PS2_EmmEv(ptr noundef nonnull align 8 dereferenceable(32) %3) #18
  %6 = call noundef nonnull align 8 dereferenceable(16) ptr @_ZNKSt15_Deque_iteratorIN7rocksdb5SliceERKS1_PS2_EdeEv(ptr noundef nonnull align 8 dereferenceable(32) %3) #18
  call void @llvm.lifetime.end.p0(i64 32, ptr %3) #18
  ret ptr %6
}

; Function Attrs: mustprogress uwtable
define noundef zeroext i1 @_ZNK7rocksdb11PutOperator17PartialMergeMultiERKNS_5SliceERKSt5dequeIS1_SaIS1_EEPNSt7__cxx1112basic_stringIcSt11char_traitsIcESaIcEEEPNS_6LoggerE(ptr noundef nonnull align 8 dereferenceable(32) %0, ptr noundef nonnull align 8 dereferenceable(16) %1, ptr noundef nonnull align 8 dereferenceable(80) %2, ptr noundef %3, ptr noundef %4) unnamed_addr #0 align 2 {
  %6 = alloca ptr, align 8
  %7 = alloca ptr, align 8
  %8 = alloca ptr, align 8
  %9 = alloca ptr, align 8
  %10 = alloca ptr, align 8
  store ptr %0, ptr %6, align 8, !tbaa !4
  store ptr %1, ptr %7, align 8, !tbaa !9
  store ptr %2, ptr %8, align 8, !tbaa !24
  store ptr %3, ptr %9, align 8, !tbaa !13
  store ptr %4, ptr %10, align 8, !tbaa !15
  %11 = load ptr, ptr %9, align 8, !tbaa !13
  %12 = load ptr, ptr %8, align 8, !tbaa !24
  %13 = call noundef nonnull align 8 dereferenceable(16) ptr @_ZNKSt5dequeIN7rocksdb5SliceESaIS1_EE4backEv(ptr noundef nonnull align 8 dereferenceable(80) %12) #18
  %14 = call noundef ptr @_ZNK7rocksdb5Slice4dataEv(ptr noundef nonnull align 8 dereferenceable(16) %13)
  %15 = load ptr, ptr %8, align 8, !tbaa !24
  %16 = call noundef nonnull align 8 dereferenceable(16) ptr @_ZNKSt5dequeIN7rocksdb5SliceESaIS1_EE4backEv(ptr noundef nonnull align 8 dereferenceable(80) %15) #18
  %17 = call noundef i64 @_ZNK7rocksdb5Slice4sizeEv(ptr noundef nonnull align 8 dereferenceable(16) %16)
  %18 = call noundef nonnull align 8 dereferenceable(32) ptr @_ZNSt7__cxx1112basic_stringIcSt11char_traitsIcESaIcEE6assignEPKcm(ptr noundef nonnull align 8 dereferenceable(32) %11, ptr noundef %14, i64 noundef %17)
  ret i1 true
}