; Function Attrs: mustprogress uwtable
define noundef zeroext i1 @_ZNK7rocksdb11PutOperator17PartialMergeMultiERKNS_5SliceERKSt5dequeIS1_SaIS1_EEPNSt7__cxx1112basic_stringIcSt11char_traitsIcESaIcEEEPNS_6LoggerE(ptr nonnull readnone align 8 captures(none) %0, ptr nonnull readnone align 8 captures(none) %1, ptr noundef nonnull readonly align 8 captures(none) dereferenceable(80) %2, ptr noundef %3, ptr readnone captures(none) %4) unnamed_addr #0 align 2 {
  %6 = getelementptr inbounds nuw i8, ptr %2, i64 48
  %7 = load ptr, ptr %6, align 8, !tbaa !26, !noalias !30
  %8 = getelementptr inbounds nuw i8, ptr %2, i64 56
  %9 = load ptr, ptr %8, align 8, !tbaa !33, !noalias !30
  %10 = icmp eq ptr %7, %9
  br i1 %10, label %12, label %_ZNKSt5dequeIN7rocksdb5SliceESaIS1_EE4backEv.exit

_ZNKSt5dequeIN7rocksdb5SliceESaIS1_EE4backEv.exit: ; preds = %5
  %11 = getelementptr inbounds i8, ptr %7, i64 -16
  br label %_ZNKSt5dequeIN7rocksdb5SliceESaIS1_EE4backEv.exit3

12:                                               ; preds = %5
  %13 = getelementptr inbounds nuw i8, ptr %2, i64 72
  %14 = load ptr, ptr %13, align 8, !tbaa !34, !noalias !30
  %15 = getelementptr inbounds i8, ptr %14, i64 -8
  %16 = load ptr, ptr %15, align 8, !tbaa !35
  %17 = getelementptr inbounds nuw i8, ptr %16, i64 496
  %18 = getelementptr inbounds nuw i8, ptr %16, i64 512
  br label %_ZNKSt5dequeIN7rocksdb5SliceESaIS1_EE4backEv.exit3

_ZNKSt5dequeIN7rocksdb5SliceESaIS1_EE4backEv.exit3: ; preds = %_ZNKSt5dequeIN7rocksdb5SliceESaIS1_EE4backEv.exit, %12
  %.in = phi ptr [ %17, %12 ], [ %11, %_ZNKSt5dequeIN7rocksdb5SliceESaIS1_EE4backEv.exit ]
  %19 = phi ptr [ %18, %12 ], [ %7, %_ZNKSt5dequeIN7rocksdb5SliceESaIS1_EE4backEv.exit ]
  %20 = load ptr, ptr %.in, align 8, !tbaa !18
  %21 = getelementptr inbounds i8, ptr %19, i64 -8
  %22 = load i64, ptr %21, align 8, !tbaa !22
  %23 = getelementptr inbounds nuw i8, ptr %3, i64 8
  %24 = load i64, ptr %23, align 8, !tbaa !23
  %25 = tail call noundef nonnull align 8 dereferenceable(32) ptr @_ZNSt7__cxx1112basic_stringIcSt11char_traitsIcESaIcEE10_M_replaceEmmPKcm(ptr noundef nonnull align 8 dereferenceable(32) %3, i64 noundef 0, i64 noundef %24, ptr noundef %20, i64 noundef %22)
  ret i1 true
}